; Function Attrs: nounwind uwtable
define ptr @l_Lean_Meta_mkOfEqFalse___lambda__2(ptr noundef %0, ptr noundef readnone captures(none) %1, ptr noundef %2, ptr noundef %3, ptr noundef %4, ptr noundef %5, ptr noundef %6) local_unnamed_addr #0 {
  tail call void @lean_inc_heartbeat() #5
  %8 = tail call noalias ptr @mi_malloc_small(i64 noundef 24) #5
  %9 = icmp eq ptr %8, null
  br i1 %9, label %10, label %lean_alloc_ctor.exit

10:                                               ; preds = %7
  tail call void @lean_internal_panic_out_of_memory() #6
  unreachable

lean_alloc_ctor.exit:                             ; preds = %7
  %11 = getelementptr inbounds nuw i8, ptr %8, i64 4
  store i32 1, ptr %8, align 4, !tbaa !4
  store i32 16908312, ptr %11, align 4
  %12 = getelementptr inbounds nuw i8, ptr %8, i64 8
  store ptr %0, ptr %12, align 8, !tbaa !10
  %13 = getelementptr inbounds nuw i8, ptr %8, i64 16
  store ptr inttoptr (i64 1 to ptr), ptr %13, align 8, !tbaa !10
  %14 = tail call ptr @lean_array_mk(ptr noundef nonnull %8) #5
  %15 = load ptr, ptr @l_Lean_Meta_mkOfEqFalseCore___closed__2, align 8, !tbaa !10
  %16 = tail call ptr @l_Lean_Meta_mkAppM(ptr noundef %15, ptr noundef %14, ptr noundef %2, ptr noundef %3, ptr noundef %4, ptr noundef %5, ptr noundef %6)
  ret ptr %16
}